target datalayout = "e-m:e-p270:32:32-p271:32:32-p272:64:64-i64:64-i128:128-f80:128-n8:16:32:64-S128"
target triple = "x86_64-pc-linux-gnu"

%struct.RBignum = type { %struct.RBasic, %union.anon }
%struct.RBasic = type { i64, i64 }
%union.anon = type { %struct.anon, [8 x i8] }
%struct.anon = type { i64, ptr }

; Function Attrs: inlinehint nounwind sspstrong willreturn memory(read) uwtable
define internal i64 @RB_FL_TEST_RAW(i64 noundef %0, i64 noundef %1) #8 {
  %3 = alloca i64, align 8
  %4 = alloca i64, align 8
  store i64 %0, ptr %3, align 8, !tbaa !7
  store i64 %1, ptr %4, align 8, !tbaa !7
  %5 = load i64, ptr %3, align 8, !tbaa !7
  %6 = inttoptr i64 %5 to ptr
  %7 = getelementptr inbounds nuw %struct.RBasic, ptr %6, i32 0, i32 0
  %8 = load i64, ptr %7, align 8, !tbaa !17
  %9 = load i64, ptr %4, align 8, !tbaa !7
  %10 = and i64 %8, %9
  ret i64 %10
}

; Function Attrs: inlinehint nounwind sspstrong uwtable
define internal zeroext i1 @BIGNUM_EMBED_P(i64 noundef %0) #2 {
  %2 = alloca i64, align 8
  store i64 %0, ptr %2, align 8, !tbaa !7
  %3 = load i64, ptr %2, align 8, !tbaa !7
  %4 = call i64 @RB_FL_TEST_RAW(i64 noundef %3, i64 noundef 16384) #26
  %5 = icmp ne i64 %4, 0
  ret i1 %5
}

; Function Attrs: nounwind sspstrong uwtable
define internal void @big_extend_carry(i64 noundef %0) #0 {
  %2 = alloca i64, align 8
  store i64 %0, ptr %2, align 8, !tbaa !7
  %3 = load i64, ptr %2, align 8, !tbaa !7
  %4 = load i64, ptr %2, align 8, !tbaa !7
  %5 = call i64 @BIGNUM_LEN(i64 noundef %4)
  %6 = add i64 %5, 1
  call void @rb_big_resize(i64 noundef %3, i64 noundef %6)
  %7 = load i64, ptr %2, align 8, !tbaa !7
  %8 = call ptr @BIGNUM_DIGITS(i64 noundef %7)
  %9 = load i64, ptr %2, align 8, !tbaa !7
  %10 = call i64 @BIGNUM_LEN(i64 noundef %9)
  %11 = sub i64 %10, 1
  %12 = getelementptr i32, ptr %8, i64 %11
  store i32 1, ptr %12, align 4, !tbaa !19
  ret void
}

; Function Attrs: nounwind sspstrong uwtable
define internal i32 @bary_2comp(ptr noundef %0, i64 noundef %1) #0 {
  %3 = alloca i32, align 4
  %4 = alloca ptr, align 8
  %5 = alloca i64, align 8
  %6 = alloca i64, align 8
  %7 = alloca i32, align 4
  store ptr %0, ptr %4, align 8, !tbaa !24
  store i64 %1, ptr %5, align 8, !tbaa !7
  call void @llvm.lifetime.start.p0(i64 8, ptr %6) #24
  store i64 0, ptr %6, align 8, !tbaa !7
  br label %8

8:                                                ; preds = %20, %2
  %9 = load i64, ptr %6, align 8, !tbaa !7
  %10 = load i64, ptr %5, align 8, !tbaa !7
  %11 = icmp ult i64 %9, %10
  br i1 %11, label %12, label %23

12:                                               ; preds = %8
  %13 = load ptr, ptr %4, align 8, !tbaa !24
  %14 = load i64, ptr %6, align 8, !tbaa !7
  %15 = getelementptr i32, ptr %13, i64 %14
  %16 = load i32, ptr %15, align 4, !tbaa !19
  %17 = icmp ne i32 %16, 0
  br i1 %17, label %18, label %19

18:                                               ; preds = %12
  br label %24

19:                                               ; preds = %12
  br label %20

20:                                               ; preds = %19
  %21 = load i64, ptr %6, align 8, !tbaa !7
  %22 = add i64 %21, 1
  store i64 %22, ptr %6, align 8, !tbaa !7
  br label %8, !llvm.loop !228

23:                                               ; preds = %8
  store i32 1, ptr %3, align 4
  store i32 1, ptr %7, align 4
  br label %55

24:                                               ; preds = %18
  %25 = load ptr, ptr %4, align 8, !tbaa !24
  %26 = load i64, ptr %6, align 8, !tbaa !7
  %27 = getelementptr i32, ptr %25, i64 %26
  %28 = load i32, ptr %27, align 4, !tbaa !19
  %29 = xor i32 %28, -1
  %30 = add i32 %29, 1
  %31 = and i32 %30, -1
  %32 = load ptr, ptr %4, align 8, !tbaa !24
  %33 = load i64, ptr %6, align 8, !tbaa !7
  %34 = getelementptr i32, ptr %32, i64 %33
  store i32 %31, ptr %34, align 4, !tbaa !19
  %35 = load i64, ptr %6, align 8, !tbaa !7
  %36 = add i64 %35, 1
  store i64 %36, ptr %6, align 8, !tbaa !7
  br label %37

37:                                               ; preds = %51, %24
  %38 = load i64, ptr %6, align 8, !tbaa !7
  %39 = load i64, ptr %5, align 8, !tbaa !7
  %40 = icmp ult i64 %38, %39
  br i1 %40, label %41, label %54

41:                                               ; preds = %37
  %42 = load ptr, ptr %4, align 8, !tbaa !24
  %43 = load i64, ptr %6, align 8, !tbaa !7
  %44 = getelementptr i32, ptr %42, i64 %43
  %45 = load i32, ptr %44, align 4, !tbaa !19
  %46 = xor i32 %45, -1
  %47 = and i32 %46, -1
  %48 = load ptr, ptr %4, align 8, !tbaa !24
  %49 = load i64, ptr %6, align 8, !tbaa !7
  %50 = getelementptr i32, ptr %48, i64 %49
  store i32 %47, ptr %50, align 4, !tbaa !19
  br label %51

51:                                               ; preds = %41
  %52 = load i64, ptr %6, align 8, !tbaa !7
  %53 = add i64 %52, 1
  store i64 %53, ptr %6, align 8, !tbaa !7
  br label %37, !llvm.loop !229

54:                                               ; preds = %37
  store i32 0, ptr %3, align 4
  store i32 1, ptr %7, align 4
  br label %55

55:                                               ; preds = %54, %23
  call void @llvm.lifetime.end.p0(i64 8, ptr %6) #24
  %56 = load i32, ptr %3, align 4
  ret i32 %56
}

; Function Attrs: inlinehint nounwind sspstrong uwtable
define internal ptr @BIGNUM_DIGITS(i64 noundef %0) #2 {
  %2 = alloca ptr, align 8
  %3 = alloca i64, align 8
  store i64 %0, ptr %3, align 8, !tbaa !7
  %4 = load i64, ptr %3, align 8, !tbaa !7
  %5 = call zeroext i1 @BIGNUM_EMBED_P(i64 noundef %4)
  br i1 %5, label %6, label %11

6:                                                ; preds = %1
  %7 = load i64, ptr %3, align 8, !tbaa !7
  %8 = inttoptr i64 %7 to ptr
  %9 = getelementptr inbounds nuw %struct.RBignum, ptr %8, i32 0, i32 1
  %10 = getelementptr inbounds [6 x i32], ptr %9, i64 0, i64 0
  store ptr %10, ptr %2, align 8
  br label %17

11:                                               ; preds = %1
  %12 = load i64, ptr %3, align 8, !tbaa !7
  %13 = inttoptr i64 %12 to ptr
  %14 = getelementptr inbounds nuw %struct.RBignum, ptr %13, i32 0, i32 1
  %15 = getelementptr inbounds nuw %struct.anon, ptr %14, i32 0, i32 1
  %16 = load ptr, ptr %15, align 8, !tbaa !16
  store ptr %16, ptr %2, align 8
  br label %17

17:                                               ; preds = %11, %6
  %18 = load ptr, ptr %2, align 8
  ret ptr %18
}

; Function Attrs: inlinehint nounwind sspstrong uwtable
define internal i64 @BIGNUM_LEN(i64 noundef %0) #2 {
  %2 = alloca i64, align 8
  %3 = alloca i64, align 8
  %4 = alloca i64, align 8
  store i64 %0, ptr %3, align 8, !tbaa !7
  %5 = load i64, ptr %3, align 8, !tbaa !7
  %6 = call zeroext i1 @BIGNUM_EMBED_P(i64 noundef %5)
  br i1 %6, label %13, label %7

7:                                                ; preds = %1
  %8 = load i64, ptr %3, align 8, !tbaa !7
  %9 = inttoptr i64 %8 to ptr
  %10 = getelementptr inbounds nuw %struct.RBignum, ptr %9, i32 0, i32 1
  %11 = getelementptr inbounds nuw %struct.anon, ptr %10, i32 0, i32 0
  %12 = load i64, ptr %11, align 8, !tbaa !16
  store i64 %12, ptr %2, align 8
  br label %23

13:                                               ; preds = %1
  call void @llvm.lifetime.start.p0(i64 8, ptr %4) #24
  %14 = load i64, ptr %3, align 8, !tbaa !7
  %15 = inttoptr i64 %14 to ptr
  %16 = getelementptr inbounds nuw %struct.RBasic, ptr %15, i32 0, i32 0
  %17 = load i64, ptr %16, align 8, !tbaa !17
  store i64 %17, ptr %4, align 8, !tbaa !7
  %18 = load i64, ptr %4, align 8, !tbaa !7
  %19 = and i64 %18, 229376
  store i64 %19, ptr %4, align 8, !tbaa !7
  %20 = load i64, ptr %4, align 8, !tbaa !7
  %21 = lshr i64 %20, 15
  store i64 %21, ptr %4, align 8, !tbaa !7
  %22 = load i64, ptr %4, align 8, !tbaa !7
  store i64 %22, ptr %2, align 8
  call void @llvm.lifetime.end.p0(i64 8, ptr %4) #24
  br label %23

23:                                               ; preds = %13, %7
  %24 = load i64, ptr %2, align 8
  ret i64 %24
}

; Function Attrs: nounwind sspstrong uwtable
define internal void @get2comp(i64 noundef %0) #0 {
  %2 = alloca i64, align 8
  %3 = alloca i64, align 8
  %4 = alloca ptr, align 8
  store i64 %0, ptr %2, align 8, !tbaa !7
  call void @llvm.lifetime.start.p0(i64 8, ptr %3) #24
  %5 = load i64, ptr %2, align 8, !tbaa !7
  %6 = call i64 @BIGNUM_LEN(i64 noundef %5)
  store i64 %6, ptr %3, align 8, !tbaa !7
  call void @llvm.lifetime.start.p0(i64 8, ptr %4) #24
  %7 = load i64, ptr %2, align 8, !tbaa !7
  %8 = call ptr @BIGNUM_DIGITS(i64 noundef %7)
  store ptr %8, ptr %4, align 8, !tbaa !24
  %9 = load ptr, ptr %4, align 8, !tbaa !24
  %10 = load i64, ptr %3, align 8, !tbaa !7
  %11 = call i32 @bary_2comp(ptr noundef %9, i64 noundef %10)
  %12 = icmp ne i32 %11, 0
  br i1 %12, label %13, label %15

13:                                               ; preds = %1
  %14 = load i64, ptr %2, align 8, !tbaa !7
  call void @big_extend_carry(i64 noundef %14)
  br label %15

15:                                               ; preds = %13, %1
  call void @llvm.lifetime.end.p0(i64 8, ptr %4) #24
  call void @llvm.lifetime.end.p0(i64 8, ptr %3) #24
  ret void
}

; Function Attrs: nounwind sspstrong uwtable
define dso_local void @rb_big_2comp(i64 noundef %0) #0 {
  %2 = alloca i64, align 8
  store i64 %0, ptr %2, align 8, !tbaa !7
  %3 = load i64, ptr %2, align 8, !tbaa !7
  call void @get2comp(i64 noundef %3)
  ret void
}