; Function Attrs: nounwind sspstrong uwtable
define dso_local void @rb_big_2comp(i64 noundef %0) local_unnamed_addr #0 {
  %2 = inttoptr i64 %0 to ptr
  %3 = load i64, ptr %2, align 8, !tbaa !11
  %4 = and i64 %3, 16384
  %.not.i.i = icmp eq i64 %4, 0
  br i1 %.not.i.i, label %9, label %5

5:                                                ; preds = %1
  %6 = lshr i64 %3, 15
  %7 = and i64 %6, 7
  %8 = getelementptr inbounds nuw i8, ptr %2, i64 16
  br label %BIGNUM_DIGITS.exit.i

9:                                                ; preds = %1
  %10 = getelementptr inbounds nuw i8, ptr %2, i64 16
  %11 = load i64, ptr %10, align 8, !tbaa !13
  %12 = getelementptr inbounds nuw i8, ptr %2, i64 24
  %13 = load ptr, ptr %12, align 8, !tbaa !13
  br label %BIGNUM_DIGITS.exit.i

BIGNUM_DIGITS.exit.i:                             ; preds = %9, %5
  %.0.i8.i = phi i64 [ %7, %5 ], [ %11, %9 ]
  %.0.i5.i = phi ptr [ %8, %5 ], [ %13, %9 ]
  %.not27.i.i = icmp eq i64 %.0.i8.i, 0
  br i1 %.not27.i.i, label %bary_2comp.exit.i, label %.lr.ph.i.i

.lr.ph.i.i:                                       ; preds = %BIGNUM_DIGITS.exit.i, %16
  %.023.i.i = phi i64 [ %17, %16 ], [ 0, %BIGNUM_DIGITS.exit.i ]
  %14 = getelementptr i32, ptr %.0.i5.i, i64 %.023.i.i
  %15 = load i32, ptr %14, align 4, !tbaa !18
  %.not.i6.i = icmp eq i32 %15, 0
  br i1 %.not.i6.i, label %16, label %18

16:                                               ; preds = %.lr.ph.i.i
  %17 = add nuw i64 %.023.i.i, 1
  %exitcond.not.i.i = icmp eq i64 %17, %.0.i8.i
  br i1 %exitcond.not.i.i, label %bary_2comp.exit.i, label %.lr.ph.i.i, !llvm.loop !48

18:                                               ; preds = %.lr.ph.i.i
  %19 = getelementptr i32, ptr %.0.i5.i, i64 %.023.i.i
  %20 = sub i32 0, %15
  store i32 %20, ptr %19, align 4, !tbaa !18
  %.124.i.i = add i64 %.023.i.i, 1
  %21 = icmp ult i64 %.124.i.i, %.0.i8.i
  br i1 %21, label %.lr.ph26.i.i, label %get2comp.exit

.lr.ph26.i.i:                                     ; preds = %18, %.lr.ph26.i.i
  %.125.i.i = phi i64 [ %.1.i.i, %.lr.ph26.i.i ], [ %.124.i.i, %18 ]
  %22 = getelementptr i32, ptr %.0.i5.i, i64 %.125.i.i
  %23 = load i32, ptr %22, align 4, !tbaa !18
  %24 = xor i32 %23, -1
  store i32 %24, ptr %22, align 4, !tbaa !18
  %.1.i.i = add nuw i64 %.125.i.i, 1
  %exitcond31.not.i.i = icmp eq i64 %.1.i.i, %.0.i8.i
  br i1 %exitcond31.not.i.i, label %get2comp.exit, label %.lr.ph26.i.i, !llvm.loop !49

bary_2comp.exit.i:                                ; preds = %16, %BIGNUM_DIGITS.exit.i
  br i1 %.not.i.i, label %25, label %28

25:                                               ; preds = %bary_2comp.exit.i
  %26 = getelementptr inbounds nuw i8, ptr %2, i64 16
  %27 = load i64, ptr %26, align 8, !tbaa !13
  br label %BIGNUM_LEN.exit.i.i

28:                                               ; preds = %bary_2comp.exit.i
  %29 = lshr i64 %3, 15
  %30 = and i64 %29, 7
  br label %BIGNUM_LEN.exit.i.i

BIGNUM_LEN.exit.i.i:                              ; preds = %28, %25
  %.0.i.i.i = phi i64 [ %30, %28 ], [ %27, %25 ]
  %31 = add i64 %.0.i.i.i, 1
  tail call void @rb_big_resize(i64 noundef %0, i64 noundef %31)
  %32 = load i64, ptr %2, align 8, !tbaa !11
  %33 = and i64 %32, 16384
  %.not.i4.i.i = icmp eq i64 %33, 0
  br i1 %.not.i4.i.i, label %34, label %39

34:                                               ; preds = %BIGNUM_LEN.exit.i.i
  %35 = getelementptr inbounds nuw i8, ptr %2, i64 24
  %36 = load ptr, ptr %35, align 8, !tbaa !13
  %37 = getelementptr inbounds nuw i8, ptr %2, i64 16
  %38 = load i64, ptr %37, align 8, !tbaa !13
  br label %big_extend_carry.exit.i

39:                                               ; preds = %BIGNUM_LEN.exit.i.i
  %40 = getelementptr inbounds nuw i8, ptr %2, i64 16
  %41 = lshr i64 %32, 15
  %42 = and i64 %41, 7
  br label %big_extend_carry.exit.i

big_extend_carry.exit.i:                          ; preds = %39, %34
  %.0.i510.i.i = phi ptr [ %40, %39 ], [ %36, %34 ]
  %.0.i7.i.i = phi i64 [ %42, %39 ], [ %38, %34 ]
  %43 = getelementptr i32, ptr %.0.i510.i.i, i64 %.0.i7.i.i
  %44 = getelementptr i8, ptr %43, i64 -4
  store i32 1, ptr %44, align 4, !tbaa !18
  br label %get2comp.exit

get2comp.exit:                                    ; preds = %.lr.ph26.i.i, %18, %big_extend_carry.exit.i
  ret void
}